target datalayout = "e-m:e-p270:32:32-p271:32:32-p272:64:64-i64:64-i128:128-f80:128-n8:16:32:64-S128"
target triple = "x86_64-pc-linux-gnu"

%struct.cmsSEQ = type { i32, ptr, ptr }
%struct.cmsPSEQDESC = type { i32, i32, i64, i32, %union.cmsProfileID, ptr, ptr, ptr }
%union.cmsProfileID = type { [4 x i32] }

; Function Attrs: nounwind uwtable
define hidden ptr @cmsAllocProfileSequenceDescription(ptr noundef %0, i32 noundef %1) #0 {
  %3 = alloca ptr, align 8
  %4 = alloca ptr, align 8
  %5 = alloca i32, align 4
  %6 = alloca ptr, align 8
  %7 = alloca i32, align 4
  store ptr %0, ptr %4, align 8
  store i32 %1, ptr %5, align 4
  %8 = load i32, ptr %5, align 4
  %9 = icmp eq i32 %8, 0
  br i1 %9, label %10, label %11

10:                                               ; preds = %2
  store ptr null, ptr %3, align 8
  br label %72

11:                                               ; preds = %2
  %12 = load i32, ptr %5, align 4
  %13 = icmp ugt i32 %12, 255
  br i1 %13, label %14, label %15

14:                                               ; preds = %11
  store ptr null, ptr %3, align 8
  br label %72

15:                                               ; preds = %11
  %16 = load ptr, ptr %4, align 8
  %17 = call ptr @_cmsMallocZero(ptr noundef %16, i32 noundef 24)
  store ptr %17, ptr %6, align 8
  %18 = load ptr, ptr %6, align 8
  %19 = icmp eq ptr %18, null
  br i1 %19, label %20, label %21

20:                                               ; preds = %15
  store ptr null, ptr %3, align 8
  br label %72

21:                                               ; preds = %15
  %22 = load ptr, ptr %4, align 8
  %23 = load ptr, ptr %6, align 8
  %24 = getelementptr inbounds %struct.cmsSEQ, ptr %23, i32 0, i32 1
  store ptr %22, ptr %24, align 8
  %25 = load ptr, ptr %4, align 8
  %26 = load i32, ptr %5, align 4
  %27 = call ptr @_cmsCalloc(ptr noundef %25, i32 noundef %26, i32 noundef 64)
  %28 = load ptr, ptr %6, align 8
  %29 = getelementptr inbounds %struct.cmsSEQ, ptr %28, i32 0, i32 2
  store ptr %27, ptr %29, align 8
  %30 = load i32, ptr %5, align 4
  %31 = load ptr, ptr %6, align 8
  %32 = getelementptr inbounds %struct.cmsSEQ, ptr %31, i32 0, i32 0
  store i32 %30, ptr %32, align 8
  %33 = load ptr, ptr %6, align 8
  %34 = getelementptr inbounds %struct.cmsSEQ, ptr %33, i32 0, i32 2
  %35 = load ptr, ptr %34, align 8
  %36 = icmp eq ptr %35, null
  br i1 %36, label %37, label %40

37:                                               ; preds = %21
  %38 = load ptr, ptr %4, align 8
  %39 = load ptr, ptr %6, align 8
  call void @_cmsFree(ptr noundef %38, ptr noundef %39)
  store ptr null, ptr %3, align 8
  br label %72

40:                                               ; preds = %21
  store i32 0, ptr %7, align 4
  br label %41

41:                                               ; preds = %67, %40
  %42 = load i32, ptr %7, align 4
  %43 = load i32, ptr %5, align 4
  %44 = icmp ult i32 %42, %43
  br i1 %44, label %45, label %70

45:                                               ; preds = %41
  %46 = load ptr, ptr %6, align 8
  %47 = getelementptr inbounds %struct.cmsSEQ, ptr %46, i32 0, i32 2
  %48 = load ptr, ptr %47, align 8
  %49 = load i32, ptr %7, align 4
  %50 = zext i32 %49 to i64
  %51 = getelementptr inbounds %struct.cmsPSEQDESC, ptr %48, i64 %50
  %52 = getelementptr inbounds %struct.cmsPSEQDESC, ptr %51, i32 0, i32 5
  store ptr null, ptr %52, align 8
  %53 = load ptr, ptr %6, align 8
  %54 = getelementptr inbounds %struct.cmsSEQ, ptr %53, i32 0, i32 2
  %55 = load ptr, ptr %54, align 8
  %56 = load i32, ptr %7, align 4
  %57 = zext i32 %56 to i64
  %58 = getelementptr inbounds %struct.cmsPSEQDESC, ptr %55, i64 %57
  %59 = getelementptr inbounds %struct.cmsPSEQDESC, ptr %58, i32 0, i32 6
  store ptr null, ptr %59, align 8
  %60 = load ptr, ptr %6, align 8
  %61 = getelementptr inbounds %struct.cmsSEQ, ptr %60, i32 0, i32 2
  %62 = load ptr, ptr %61, align 8
  %63 = load i32, ptr %7, align 4
  %64 = zext i32 %63 to i64
  %65 = getelementptr inbounds %struct.cmsPSEQDESC, ptr %62, i64 %64
  %66 = getelementptr inbounds %struct.cmsPSEQDESC, ptr %65, i32 0, i32 7
  store ptr null, ptr %66, align 8
  br label %67

67:                                               ; preds = %45
  %68 = load i32, ptr %7, align 4
  %69 = add i32 %68, 1
  store i32 %69, ptr %7, align 4
  br label %41, !llvm.loop !21

70:                                               ; preds = %41
  %71 = load ptr, ptr %6, align 8
  store ptr %71, ptr %3, align 8
  br label %72

72:                                               ; preds = %70, %37, %20, %14, %10
  %73 = load ptr, ptr %3, align 8
  ret ptr %73
}