; Function Attrs: nounwind uwtable
define hidden ptr @cmsAllocProfileSequenceDescription(ptr noundef %0, i32 noundef %1) local_unnamed_addr #0 {
  %3 = add i32 %1, -256
  %or.cond = icmp ult i32 %3, -255
  br i1 %or.cond, label %.loopexit, label %4

4:                                                ; preds = %2
  %5 = tail call ptr @_cmsMallocZero(ptr noundef %0, i32 noundef 24) #12
  %6 = icmp eq ptr %5, null
  br i1 %6, label %.loopexit, label %7

7:                                                ; preds = %4
  %8 = getelementptr inbounds i8, ptr %5, i64 8
  store ptr %0, ptr %8, align 8
  %9 = tail call ptr @_cmsCalloc(ptr noundef %0, i32 noundef %1, i32 noundef 64) #12
  %10 = getelementptr inbounds i8, ptr %5, i64 16
  store ptr %9, ptr %10, align 8
  store i32 %1, ptr %5, align 8
  %11 = icmp eq ptr %9, null
  br i1 %11, label %12, label %.lr.ph.preheader

.lr.ph.preheader:                                 ; preds = %7
  %wide.trip.count = zext nneg i32 %1 to i64
  br label %.lr.ph

12:                                               ; preds = %7
  tail call void @_cmsFree(ptr noundef %0, ptr noundef nonnull %5) #12
  br label %.loopexit

.lr.ph:                                           ; preds = %.lr.ph.preheader, %.lr.ph
  %indvars.iv = phi i64 [ 0, %.lr.ph.preheader ], [ %indvars.iv.next, %.lr.ph ]
  %13 = load ptr, ptr %10, align 8
  %14 = getelementptr inbounds %struct.cmsPSEQDESC, ptr %13, i64 %indvars.iv, i32 5
  store ptr null, ptr %14, align 8
  %15 = load ptr, ptr %10, align 8
  %16 = getelementptr inbounds %struct.cmsPSEQDESC, ptr %15, i64 %indvars.iv, i32 6
  store ptr null, ptr %16, align 8
  %17 = load ptr, ptr %10, align 8
  %18 = getelementptr inbounds %struct.cmsPSEQDESC, ptr %17, i64 %indvars.iv, i32 7
  store ptr null, ptr %18, align 8
  %indvars.iv.next = add nuw nsw i64 %indvars.iv, 1
  %exitcond.not = icmp eq i64 %indvars.iv.next, %wide.trip.count
  br i1 %exitcond.not, label %.loopexit, label %.lr.ph, !llvm.loop !22

.loopexit:                                        ; preds = %.lr.ph, %4, %2, %12
  %.024 = phi ptr [ null, %12 ], [ null, %2 ], [ null, %4 ], [ %5, %.lr.ph ]
  ret ptr %.024
}